target datalayout = "e-m:e-p270:32:32-p271:32:32-p272:64:64-i64:64-f80:128-n8:16:32:64-S128"
target triple = "x86_64-pc-linux-gnu"

%struct.book = type { i32, [10 x i8] }

@.str = private unnamed_addr constant [3 x i8] c"%d\00", align 1
@.str.1 = private unnamed_addr constant [6 x i8] c"%d %s\00", align 1
@.str.2 = private unnamed_addr constant [7 x i8] c"%c\0A%d\0A\00", align 1
@.str.3 = private unnamed_addr constant [4 x i8] c"%d\0A\00", align 1

; Function Attrs: noinline nounwind uwtable
define dso_local void @main() #0 {
  %1 = alloca [400 x %struct.book], align 16
  %2 = alloca i32, align 4
  %3 = alloca i32, align 4
  %4 = alloca i32, align 4
  %5 = alloca i32, align 4
  %6 = alloca i32, align 4
  %7 = alloca i32, align 4
  %8 = alloca [400 x i32], align 16
  %9 = alloca i32, align 4
  %10 = alloca i8, align 1
  store i32 0, i32* %4, align 4
  %11 = call i32 (i8*, ...) @__isoc99_scanf(i8* getelementptr inbounds ([3 x i8], [3 x i8]* @.str, i64 0, i64 0), i32* %3)
  store i32 0, i32* %2, align 4
  br label %12

12:                                               ; preds = %37, %0
  %13 = load i32, i32* %2, align 4
  %14 = load i32, i32* %3, align 4
  %15 = icmp slt i32 %13, %14
  br i1 %15, label %16, label %40

16:                                               ; preds = %12
  %17 = load i32, i32* %2, align 4
  %18 = sext i32 %17 to i64
  %19 = getelementptr inbounds [400 x %struct.book], [400 x %struct.book]* %1, i64 0, i64 %18
  %20 = getelementptr inbounds %struct.book, %struct.book* %19, i32 0, i32 0
  %21 = load i32, i32* %2, align 4
  %22 = sext i32 %21 to i64
  %23 = getelementptr inbounds [400 x %struct.book], [400 x %struct.book]* %1, i64 0, i64 %22
  %24 = getelementptr inbounds %struct.book, %struct.book* %23, i32 0, i32 1
  %25 = getelementptr inbounds [10 x i8], [10 x i8]* %24, i64 0, i64 0
  %26 = call i32 (i8*, ...) @__isoc99_scanf(i8* getelementptr inbounds ([6 x i8], [6 x i8]* @.str.1, i64 0, i64 0), i32* %20, i8* %25)
  %27 = load i32, i32* %2, align 4
  %28 = sext i32 %27 to i64
  %29 = getelementptr inbounds [400 x %struct.book], [400 x %struct.book]* %1, i64 0, i64 %28
  %30 = getelementptr inbounds %struct.book, %struct.book* %29, i32 0, i32 1
  %31 = getelementptr inbounds [10 x i8], [10 x i8]* %30, i64 0, i64 0
  %32 = call i64 @strlen(i8* %31) #3
  %33 = trunc i64 %32 to i32
  %34 = load i32, i32* %2, align 4
  %35 = sext i32 %34 to i64
  %36 = getelementptr inbounds [400 x i32], [400 x i32]* %8, i64 0, i64 %35
  store i32 %33, i32* %36, align 4
  br label %37

37:                                               ; preds = %16
  %38 = load i32, i32* %2, align 4
  %39 = add nsw i32 %38, 1
  store i32 %39, i32* %2, align 4
  br label %12

40:                                               ; preds = %12
  store i32 0, i32* %2, align 4
  br label %41

41:                                               ; preds = %119, %40
  %42 = load i32, i32* %2, align 4
  %43 = load i32, i32* %3, align 4
  %44 = sub nsw i32 %43, 1
  %45 = icmp slt i32 %42, %44
  br i1 %45, label %46, label %122

46:                                               ; preds = %41
  store i32 0, i32* %5, align 4
  br label %47

47:                                               ; preds = %115, %46
  %48 = load i32, i32* %5, align 4
  %49 = load i32, i32* %2, align 4
  %50 = sext i32 %49 to i64
  %51 = getelementptr inbounds [400 x i32], [400 x i32]* %8, i64 0, i64 %50
  %52 = load i32, i32* %51, align 4
  %53 = icmp slt i32 %48, %52
  br i1 %53, label %54, label %118

54:                                               ; preds = %47
  store i32 1, i32* %9, align 4
  %55 = load i32, i32* %2, align 4
  %56 = add nsw i32 %55, 1
  store i32 %56, i32* %6, align 4
  br label %57

57:                                               ; preds = %97, %54
  %58 = load i32, i32* %6, align 4
  %59 = load i32, i32* %3, align 4
  %60 = icmp slt i32 %58, %59
  br i1 %60, label %61, label %100

61:                                               ; preds = %57
  store i32 0, i32* %7, align 4
  br label %62

62:                                               ; preds = %93, %61
  %63 = load i32, i32* %7, align 4
  %64 = load i32, i32* %6, align 4
  %65 = sext i32 %64 to i64
  %66 = getelementptr inbounds [400 x i32], [400 x i32]* %8, i64 0, i64 %65
  %67 = load i32, i32* %66, align 4
  %68 = icmp slt i32 %63, %67
  br i1 %68, label %69, label %96

69:                                               ; preds = %62
  %70 = load i32, i32* %2, align 4
  %71 = sext i32 %70 to i64
  %72 = getelementptr inbounds [400 x %struct.book], [400 x %struct.book]* %1, i64 0, i64 %71
  %73 = getelementptr inbounds %struct.book, %struct.book* %72, i32 0, i32 1
  %74 = load i32, i32* %5, align 4
  %75 = sext i32 %74 to i64
  %76 = getelementptr inbounds [10 x i8], [10 x i8]* %73, i64 0, i64 %75
  %77 = load i8, i8* %76, align 1
  %78 = sext i8 %77 to i32
  %79 = load i32, i32* %6, align 4
  %80 = sext i32 %79 to i64
  %81 = getelementptr inbounds [400 x %struct.book], [400 x %struct.book]* %1, i64 0, i64 %80
  %82 = getelementptr inbounds %struct.book, %struct.book* %81, i32 0, i32 1
  %83 = load i32, i32* %7, align 4
  %84 = sext i32 %83 to i64
  %85 = getelementptr inbounds [10 x i8], [10 x i8]* %82, i64 0, i64 %84
  %86 = load i8, i8* %85, align 1
  %87 = sext i8 %86 to i32
  %88 = icmp eq i32 %78, %87
  br i1 %88, label %89, label %92

89:                                               ; preds = %69
  %90 = load i32, i32* %9, align 4
  %91 = add nsw i32 %90, 1
  store i32 %91, i32* %9, align 4
  br label %92

92:                                               ; preds = %89, %69
  br label %93

93:                                               ; preds = %92
  %94 = load i32, i32* %7, align 4
  %95 = add nsw i32 %94, 1
  store i32 %95, i32* %7, align 4
  br label %62

96:                                               ; preds = %62
  br label %97

97:                                               ; preds = %96
  %98 = load i32, i32* %6, align 4
  %99 = add nsw i32 %98, 1
  store i32 %99, i32* %6, align 4
  br label %57

100:                                              ; preds = %57
  %101 = load i32, i32* %9, align 4
  %102 = load i32, i32* %4, align 4
  %103 = icmp sgt i32 %101, %102
  br i1 %103, label %104, label %114

104:                                              ; preds = %100
  %105 = load i32, i32* %9, align 4
  store i32 %105, i32* %4, align 4
  %106 = load i32, i32* %2, align 4
  %107 = sext i32 %106 to i64
  %108 = getelementptr inbounds [400 x %struct.book], [400 x %struct.book]* %1, i64 0, i64 %107
  %109 = getelementptr inbounds %struct.book, %struct.book* %108, i32 0, i32 1
  %110 = load i32, i32* %5, align 4
  %111 = sext i32 %110 to i64
  %112 = getelementptr inbounds [10 x i8], [10 x i8]* %109, i64 0, i64 %111
  %113 = load i8, i8* %112, align 1
  store i8 %113, i8* %10, align 1
  br label %114

114:                                              ; preds = %104, %100
  br label %115

115:                                              ; preds = %114
  %116 = load i32, i32* %5, align 4
  %117 = add nsw i32 %116, 1
  store i32 %117, i32* %5, align 4
  br label %47

118:                                              ; preds = %47
  br label %119

119:                                              ; preds = %118
  %120 = load i32, i32* %2, align 4
  %121 = add nsw i32 %120, 1
  store i32 %121, i32* %2, align 4
  br label %41

122:                                              ; preds = %41
  %123 = load i8, i8* %10, align 1
  %124 = sext i8 %123 to i32
  %125 = load i32, i32* %4, align 4
  %126 = call i32 (i8*, ...) @printf(i8* getelementptr inbounds ([7 x i8], [7 x i8]* @.str.2, i64 0, i64 0), i32 %124, i32 %125)
  store i32 0, i32* %2, align 4
  br label %127

127:                                              ; preds = %164, %122
  %128 = load i32, i32* %2, align 4
  %129 = load i32, i32* %3, align 4
  %130 = icmp slt i32 %128, %129
  br i1 %130, label %131, label %167

131:                                              ; preds = %127
  store i32 0, i32* %5, align 4
  br label %132

132:                                              ; preds = %160, %131
  %133 = load i32, i32* %5, align 4
  %134 = load i32, i32* %2, align 4
  %135 = sext i32 %134 to i64
  %136 = getelementptr inbounds [400 x i32], [400 x i32]* %8, i64 0, i64 %135
  %137 = load i32, i32* %136, align 4
  %138 = icmp slt i32 %133, %137
  br i1 %138, label %139, label %163

139:                                              ; preds = %132
  %140 = load i8, i8* %10, align 1
  %141 = sext i8 %140 to i32
  %142 = load i32, i32* %2, align 4
  %143 = sext i32 %142 to i64
  %144 = getelementptr inbounds [400 x %struct.book], [400 x %struct.book]* %1, i64 0, i64 %143
  %145 = getelementptr inbounds %struct.book, %struct.book* %144, i32 0, i32 1
  %146 = load i32, i32* %5, align 4
  %147 = sext i32 %146 to i64
  %148 = getelementptr inbounds [10 x i8], [10 x i8]* %145, i64 0, i64 %147
  %149 = load i8, i8* %148, align 1
  %150 = sext i8 %149 to i32
  %151 = icmp eq i32 %141, %150
  br i1 %151, label %152, label %159

152:                                              ; preds = %139
  %153 = load i32, i32* %2, align 4
  %154 = sext i32 %153 to i64
  %155 = getelementptr inbounds [400 x %struct.book], [400 x %struct.book]* %1, i64 0, i64 %154
  %156 = getelementptr inbounds %struct.book, %struct.book* %155, i32 0, i32 0
  %157 = load i32, i32* %156, align 16
  %158 = call i32 (i8*, ...) @printf(i8* getelementptr inbounds ([4 x i8], [4 x i8]* @.str.3, i64 0, i64 0), i32 %157)
  br label %163

159:                                              ; preds = %139
  br label %160

160:                                              ; preds = %159
  %161 = load i32, i32* %5, align 4
  %162 = add nsw i32 %161, 1
  store i32 %162, i32* %5, align 4
  br label %132

163:                                              ; preds = %152, %132
  br label %164

164:                                              ; preds = %163
  %165 = load i32, i32* %2, align 4
  %166 = add nsw i32 %165, 1
  store i32 %166, i32* %2, align 4
  br label %127

167:                                              ; preds = %127
  ret void
}